(i__main__
TwoWayDictionary
p0
(dp1
S'v2i'
p2
(dp3
I9
I0
sI10
I1
sI32
I2
sI33
I3
sI34
I4
sI35
I5
sI36
I6
sI38
I7
sI39
I8
sI40
I9
sI41
I10
sI42
I11
sI43
I12
sI44
I13
sI45
I14
sI46
I15
sI47
I16
sI48
I17
sI49
I18
sI50
I19
sI51
I20
sI52
I21
sI53
I22
sI54
I23
sI55
I24
sI56
I25
sI57
I26
sI58
I27
sI60
I28
sI61
I29
sI62
I30
sI63
I31
sI64
I32
sI65
I33
sI66
I34
sI67
I35
sI68
I36
sI69
I37
sI70
I38
sI71
I39
sI72
I40
sI73
I41
sI74
I42
sI75
I43
sI76
I44
sI77
I45
sI78
I46
sI79
I47
sI80
I48
sI81
I49
sI82
I50
sI83
I51
sI84
I52
sI85
I53
sI86
I54
sI87
I55
sI88
I56
sI89
I57
sI90
I58
sI91
I59
sI92
I60
sI93
I61
sI94
I62
sI95
I63
sI96
I64
sI97
I65
sI98
I66
sI99
I67
sI100
I68
sI101
I69
sI102
I70
sI103
I71
sI104
I72
sI105
I73
sI106
I74
sI107
I75
sI108
I76
sI109
I77
sI110
I78
sI111
I79
sI112
I80
sI113
I81
sI114
I82
sI115
I83
sI116
I84
sI117
I85
sI118
I86
sI119
I87
sI120
I88
sI121
I89
sI122
I90
sI123
I91
sI124
I92
sI125
I93
sI126
I94
ssS'i2v'
p4
(dp5
I0
I9
sI1
I10
sI2
I32
sI3
I33
sI4
I34
sI5
I35
sI6
I36
sI7
I38
sI8
I39
sI9
I40
sI10
I41
sI11
I42
sI12
I43
sI13
I44
sI14
I45
sI15
I46
sI16
I47
sI17
I48
sI18
I49
sI19
I50
sI20
I51
sI21
I52
sI22
I53
sI23
I54
sI24
I55
sI25
I56
sI26
I57
sI27
I58
sI28
I60
sI29
I61
sI30
I62
sI31
I63
sI32
I64
sI33
I65
sI34
I66
sI35
I67
sI36
I68
sI37
I69
sI38
I70
sI39
I71
sI40
I72
sI41
I73
sI42
I74
sI43
I75
sI44
I76
sI45
I77
sI46
I78
sI47
I79
sI48
I80
sI49
I81
sI50
I82
sI51
I83
sI52
I84
sI53
I85
sI54
I86
sI55
I87
sI56
I88
sI57
I89
sI58
I90
sI59
I91
sI60
I92
sI61
I93
sI62
I94
sI63
I95
sI64
I96
sI65
I97
sI66
I98
sI67
I99
sI68
I100
sI69
I101
sI70
I102
sI71
I103
sI72
I104
sI73
I105
sI74
I106
sI75
I107
sI76
I108
sI77
I109
sI78
I110
sI79
I111
sI80
I112
sI81
I113
sI82
I114
sI83
I115
sI84
I116
sI85
I117
sI86
I118
sI87
I119
sI88
I120
sI89
I121
sI90
I122
sI91
I123
sI92
I124
sI93
I125
sI94
I126
ssb.